
Allocating common symbols
Common symbol       size              file

sprTileIndexes      0x18              build/main.o
timer_3             0x2               build/main.o
fq                  0x1               build/main.o
bgBaseTileIndex     0x12              build/main.o
playing_playerBattleAction
                    0x1               build/main.o
currentNPC          0x4               build/main.o
map                 0x400             build/main.o
last_attack_hit     0x1               build/main.o
ticker              0x4               build/main.o
sliding_out_attacking_player
                    0x1               build/main.o
hcount              0x4               build/main.o
initiative_arr      0x40              build/main.o
waitingToPrint      0x19              build/main.o
textLog             0x9c4             build/main.o
function_q          0xc8              build/main.o
vdpstat             0x2               build/main.o
CUR_SCREEN_MODE     0x4               build/main.o
doNextActor         0x1               build/main.o
NUM_SPRITES         0x1               build/main.o
sliding_out_tgtplayer
                    0x1               build/main.o
frameCounter        0x4               build/main.o
flashDarkAnimPlaying
                    0x1               build/main.o
NEXT_SCREEN_MODE    0x4               build/main.o
worldMapActiveFunc  0x4               build/main.o
player              0x4               build/main.o
numbertest          0x4               build/main.o
timer_2             0x4               build/main.o
frameFlip           0x1               build/main.o
combatants          0x490             build/main.o
slidingBattleGUIOut
                    0x1               build/main.o
testno              0x2               build/main.o
gui2                0x4               build/main.o
wmClouds            0x10              build/main.o
palNegatives        0x20              build/main.o
selectorTick        0x1               build/main.o
attackSelectProc    0x1               build/main.o
menu_opts           0x1               build/main.o
startPlayingCombat  0x1               build/main.o
npcwindow_tick      0x1               build/main.o
closingNPCWindow    0x1               build/main.o
battleNextPlayerInput
                    0x1               build/main.o
debug               0xa               build/main.o
openingNPCWindow    0x1               build/main.o
spriteSlideTimer    0x4               build/main.o
pSpeed              0x1               build/main.o
scrollInCombatants  0x1               build/main.o
select_number       0x1               build/main.o
bg_a_map            0x1000            build/main.o
callWhenFlashed     0x4               build/main.o
sprBaseInd          0x2               build/main.o
currentEnemySelected
                    0x1               build/main.o
wmShadows           0x10              build/main.o
bgmusictestmap      0x4               build/main.o
nextCombatActor     0x1               build/main.o
NPC_waitingForButton
                    0x1               build/main.o
last_tohit          0x1               build/main.o
timer_1             0x4               build/main.o
CURRENT_BATTLE_FACING
                    0x1               build/main.o
viewProjection      0x19              build/main.o
command_arr         0x60              build/main.o
gui                 0x4               build/main.o
damageNumbers       0x18              build/main.o
selector_y_base     0x1               build/main.o
selector            0x4               build/main.o
test                0x4               build/main.o
unflashDarkAnimPlaying
                    0x1               build/main.o
selectorpos         0x4               build/main.o
ProcessInput        0x4               build/main.o
cloudPos            0x10              build/main.o
walkingInGrass      0x1               build/main.o
MAP1_FLAG1          0x1               build/main.o
playerWalking       0x1               build/main.o
q_args              0xc8              build/main.o
culled              0x19              build/main.o
specialMods         0x4               build/main.o
playerDirection     0x4               build/main.o
wm_player           0x4               build/main.o
titleScr            0x4               build/main.o
elementTypes        0x4               build/main.o
battleGUISlideFrame
                    0x1               build/main.o
worldmap            0x4               build/main.o
battleNewTurn       0x1               build/main.o
scrollOutActive     0x1               build/main.o
printLoc            0x1               build/main.o
procLine            0x19              build/main.o
spriteSlideTick     0x1               build/main.o
introTxtFadeOut     0x1               build/main.o
spriteRamBase       0x4               build/main.o
dungeonview         0xc8              build/main.o
last_attack_dmg     0x2               build/main.o
scrollInNext        0x1               build/main.o
currentMapEvent     0x4               build/main.o
spriteRamPtr        0x4               build/main.o
battleIdleWait_Timer
                    0x1               build/main.o
playing_enemyBattleAction
                    0x1               build/main.o
disp                0x1               build/main.o
activePlayer        0x1               build/main.o
numTile             0x2               build/main.o
initiative_rolls    0x40              build/main.o

Discarded input sections

 .debug_line    0x00000000      0x765 build/main.o
 .debug_info    0x00000000       0x26 build/main.o
 .debug_abbrev  0x00000000       0x14 build/main.o
 .debug_aranges
                0x00000000       0x20 build/main.o
 .debug_str     0x00000000       0x35 build/main.o

Memory Configuration

Name             Origin             Length             Attributes
ROM              0x00000000         0x001fffff         xr
RAM              0x00ff0000         0x0000efff         !xr
*default*        0x00000000         0xffffffff

Linker script and memory map


.text           0x00000000     0x7bbe
                0x00000000                . = ALIGN (0x2)
                0x00000000                _stext = .
 *(.text*)
 .text          0x00000000     0x19ae build/main.o
                0x00000410                catch
                0x00000418                HBlank
                0x0000041c                VBlank
                0x00000442                memset
                0x0000046c                _start
                0x000004a0                SetVRAMWriteAddress
                0x000004ea                SetVRAMReadAddress
                0x0000052e                SetVDPPlaneAddress
                0x000005de                LoadPalette
                0x00000646                print
                0x00000710                DrawSpriteAsTile
                0x0000080e                DrawTile
                0x0000090a                UpdateBGScroll
                0x00000978                AddSprite
                0x000009cc                LinkAllSpriteData
                0x00000a64                strsize
                0x00000a82                VDPLoadTiles
                0x00000afe                LoadDungeonMap
                0x00000be8                LoadPalettestoTemp
                0x00000c3c                UnflashAllPalettes
                0x00000f76                FlashAllPalettes
                0x0000108c                AddQueue
                0x000010f0                DoQ
                0x000011c0                Wait
                0x000011d6                stdcpy
                0x000011f6                TitleInputHandler
                0x000011fa                InitGameStuff
                0x00001294                DrawBGMap
                0x0000136a                InitTitleScreen
                0x0000140e                UndarkAllPalettes
                0x00001412                main
                0x00001612                GAME_DRAW
                0x000019ae                . = ALIGN (0x2)
 *(.rodata*)
 .rodata        0x000019ae     0x620f build/main.o
                0x000025ce                titlePalette
                0x0000718e                title_test_map
                0x00007ad8                fullblackpal
                0x00007af8                playerNames
                0x00007b38                maptest2
                0x00007bae                hw
                0x00007bbe                . = ALIGN (0x2)
 *fill*         0x00007bbd        0x1 
                0x00007bbe                _etext = .
                0x00007bbe                _end_rom = .
                0x00ff0000                . = 0xff0000

.data           0x00ff0000      0x14a load address 0x00007bbe
                0x00ff0000                . = ALIGN (0x2)
                0x00ff0000                _sdata = .
 *(.data*)
 .data          0x00ff0000      0x14a build/main.o
                0x00ff0000                framerate
                0x00ff0001                mapWidth
                0x00ff0002                mapHeight
                0x00ff0003                playerFacing
                0x00ff0004                blankLine
                0x00ff001e                songnames
                0x00ff004a                pex
                0x00ff008a                pex2
                0x00ff00ca                pex3
                0x00ff010a                pex4
                0x00ff014a                . = ALIGN (0x2)
                0x00ff014a                _edata = .

.bss            0x00ff014c     0x2bb0 load address 0x00007d0c
                0x00ff014c                . = ALIGN (0x2)
                0x00ff014c                _sbss = .
 *(.bss*)
 .bss           0x00ff014c      0x468 build/main.o
                0x00ff014c                bga_hscroll_pos
                0x00ff014e                bga_vscroll_pos
                0x00ff0150                bgb_hscroll_pos
                0x00ff0152                bgb_vscroll_pos
                0x00ff0154                initBgMapDone
                0x00ff0155                logUpdated
                0x00ff0156                currentSong
                0x00ff0157                numClouds
                0x00ff0158                screenUpdated
                0x00ff0159                stepSwitch
                0x00ff015a                flashAnimPlaying
                0x00ff015c                flashStepTimer
                0x00ff0160                flashStep
                0x00ff0161                unflashAnimPlaying
                0x00ff0162                executeTile
                0x00ff0163                backgroundUpdated
                0x00ff0164                normalBattBgScroll
                0x00ff0165                battleTest
                0x00ff0166                tileindex
                0x00ff0168                battleMenuOpen
                0x00ff0169                introTxtTimer
                0x00ff016a                introTxtFadeIn
                0x00ff016b                q_in
                0x00ff016c                q_ofs
                0x00ff016e                GLOBALWAIT
                0x00ff0170                REORDER_SPRITES
                0x00ff0171                sprites_destroyed
                0x00ff0172                sixtyFrameCounter
                0x00ff0173                twentyFrameCounter
                0x00ff0174                tenFrameCounter
                0x00ff0176                blankpalette
                0x00ff0196                second_counter_a
                0x00ff0198                title_intro_done
                0x00ff05b4                . = ALIGN (0x2)
 *(COMMON)
 COMMON         0x00ff05b4     0x2748 build/main.o
                0x00ff05b4                sprTileIndexes
                0x00ff05cc                timer_3
                0x00ff05ce                fq
                0x00ff05d0                bgBaseTileIndex
                0x00ff05e2                playing_playerBattleAction
                0x00ff05e4                currentNPC
                0x00ff05e8                map
                0x00ff09e8                last_attack_hit
                0x00ff09ea                ticker
                0x00ff09ee                sliding_out_attacking_player
                0x00ff09f0                hcount
                0x00ff09f4                initiative_arr
                0x00ff0a34                waitingToPrint
                0x00ff0a4d                textLog
                0x00ff1412                function_q
                0x00ff14da                vdpstat
                0x00ff14dc                CUR_SCREEN_MODE
                0x00ff14e0                doNextActor
                0x00ff14e1                NUM_SPRITES
                0x00ff14e2                sliding_out_tgtplayer
                0x00ff14e4                frameCounter
                0x00ff14e8                flashDarkAnimPlaying
                0x00ff14ea                NEXT_SCREEN_MODE
                0x00ff14ee                worldMapActiveFunc
                0x00ff14f2                player
                0x00ff14f6                numbertest
                0x00ff14fa                timer_2
                0x00ff14fe                frameFlip
                0x00ff1500                combatants
                0x00ff1990                slidingBattleGUIOut
                0x00ff1992                testno
                0x00ff1994                gui2
                0x00ff1998                wmClouds
                0x00ff19a8                palNegatives
                0x00ff19c8                selectorTick
                0x00ff19c9                attackSelectProc
                0x00ff19ca                menu_opts
                0x00ff19cb                startPlayingCombat
                0x00ff19cc                npcwindow_tick
                0x00ff19cd                closingNPCWindow
                0x00ff19ce                battleNextPlayerInput
                0x00ff19cf                debug
                0x00ff19d9                openingNPCWindow
                0x00ff19da                spriteSlideTimer
                0x00ff19de                pSpeed
                0x00ff19df                scrollInCombatants
                0x00ff19e0                select_number
                0x00ff19e2                bg_a_map
                0x00ff29e2                callWhenFlashed
                0x00ff29e6                sprBaseInd
                0x00ff29e8                currentEnemySelected
                0x00ff29ea                wmShadows
                0x00ff29fa                bgmusictestmap
                0x00ff29fe                nextCombatActor
                0x00ff29ff                NPC_waitingForButton
                0x00ff2a00                last_tohit
                0x00ff2a02                timer_1
                0x00ff2a06                CURRENT_BATTLE_FACING
                0x00ff2a07                viewProjection
                0x00ff2a20                command_arr
                0x00ff2a80                gui
                0x00ff2a84                damageNumbers
                0x00ff2a9c                selector_y_base
                0x00ff2a9e                selector
                0x00ff2aa2                test
                0x00ff2aa6                unflashDarkAnimPlaying
                0x00ff2aa8                selectorpos
                0x00ff2aac                ProcessInput
                0x00ff2ab0                cloudPos
                0x00ff2ac0                walkingInGrass
                0x00ff2ac1                MAP1_FLAG1
                0x00ff2ac2                playerWalking
                0x00ff2ac4                q_args
                0x00ff2b8c                culled
                0x00ff2ba6                specialMods
                0x00ff2baa                playerDirection
                0x00ff2bae                wm_player
                0x00ff2bb2                titleScr
                0x00ff2bb6                elementTypes
                0x00ff2bba                battleGUISlideFrame
                0x00ff2bbc                worldmap
                0x00ff2bc0                battleNewTurn
                0x00ff2bc1                scrollOutActive
                0x00ff2bc2                printLoc
                0x00ff2bc3                procLine
                0x00ff2bdc                spriteSlideTick
                0x00ff2bdd                introTxtFadeOut
                0x00ff2bde                spriteRamBase
                0x00ff2be2                dungeonview
                0x00ff2caa                last_attack_dmg
                0x00ff2cac                scrollInNext
                0x00ff2cae                currentMapEvent
                0x00ff2cb2                spriteRamPtr
                0x00ff2cb6                battleIdleWait_Timer
                0x00ff2cb7                playing_enemyBattleAction
                0x00ff2cb8                disp
                0x00ff2cb9                activePlayer
                0x00ff2cba                numTile
                0x00ff2cbc                initiative_rolls
                0x00ff2cfc                . = ALIGN (0x2)
                0x00ff2cfc                _ebss = .
LOAD build/main.o
OUTPUT(out/_main.rom binary)

.comment        0x00000000       0x12
 .comment       0x00000000       0x12 build/main.o
